target datalayout = "e-m:e-p270:32:32-p271:32:32-p272:64:64-i64:64-i128:128-f80:128-n8:16:32:64-S128"
target triple = "x86_64-pc-linux-gnu"

%class.File = type { ptr, i64, i8, i32, i8, i8, i32, i8, i8, i8, i8, i8, i64, i8, [2048 x i32], i32, ptr }

; Function Attrs: mustprogress uwtable
define noundef i64 @_ZN4File10FileLengthEv(ptr noundef nonnull align 8 dereferenceable(8256) %0) #1 align 2 {
  %2 = alloca ptr, align 8
  %3 = alloca i64, align 8
  %4 = alloca i64, align 8
  store ptr %0, ptr %2, align 8
  %5 = load ptr, ptr %2, align 8
  %6 = load ptr, ptr %5, align 8
  %7 = getelementptr inbounds ptr, ptr %6, i64 6
  %8 = load ptr, ptr %7, align 8
  %9 = call noundef i64 %8(ptr noundef nonnull align 8 dereferenceable(8256) %5)
  store i64 %9, ptr %3, align 8
  %10 = load ptr, ptr %5, align 8
  %11 = getelementptr inbounds ptr, ptr %10, i64 5
  %12 = load ptr, ptr %11, align 8
  call void %12(ptr noundef nonnull align 8 dereferenceable(8256) %5, i64 noundef 0, i32 noundef 2)
  %13 = load ptr, ptr %5, align 8
  %14 = getelementptr inbounds ptr, ptr %13, i64 6
  %15 = load ptr, ptr %14, align 8
  %16 = call noundef i64 %15(ptr noundef nonnull align 8 dereferenceable(8256) %5)
  store i64 %16, ptr %4, align 8
  %17 = load i64, ptr %3, align 8
  %18 = load ptr, ptr %5, align 8
  %19 = getelementptr inbounds ptr, ptr %18, i64 5
  %20 = load ptr, ptr %19, align 8
  call void %20(ptr noundef nonnull align 8 dereferenceable(8256) %5, i64 noundef %17, i32 noundef 0)
  %21 = load i64, ptr %4, align 8
  ret i64 %21
}

; Function Attrs: mustprogress nounwind uwtable
define linkonce_odr noundef zeroext i1 @_ZN4File10IsSeekableEv(ptr noundef nonnull align 8 dereferenceable(8256) %0) #0 comdat align 2 {
  %2 = alloca ptr, align 8
  store ptr %0, ptr %2, align 8
  %3 = load ptr, ptr %2, align 8
  %4 = getelementptr inbounds %class.File, ptr %3, i32 0, i32 3
  %5 = load i32, ptr %4, align 4
  %6 = icmp ne i32 %5, 1
  ret i1 %6
}

; Function Attrs: mustprogress uwtable
define noundef zeroext i1 @_ZN4File7RawSeekEli(ptr noundef nonnull align 8 dereferenceable(8256) %0, i64 noundef %1, i32 noundef %2) #1 align 2 {
  %4 = alloca i1, align 1
  %5 = alloca ptr, align 8
  %6 = alloca i64, align 8
  %7 = alloca i32, align 4
  %8 = alloca [4096 x i8], align 16
  %9 = alloca i64, align 8
  %10 = alloca i32, align 4
  %11 = alloca i32, align 4
  store ptr %0, ptr %5, align 8
  store i64 %1, ptr %6, align 8
  store i32 %2, ptr %7, align 4
  %12 = load ptr, ptr %5, align 8
  %13 = getelementptr inbounds %class.File, ptr %12, i32 0, i32 1
  %14 = load i64, ptr %13, align 8
  %15 = icmp eq i64 %14, -1
  br i1 %15, label %16, label %17

16:                                               ; preds = %3
  store i1 true, ptr %4, align 1
  br label %122

17:                                               ; preds = %3
  %18 = call noundef zeroext i1 @_ZN4File10IsSeekableEv(ptr noundef nonnull align 8 dereferenceable(8256) %12)
  br i1 %18, label %91, label %19

19:                                               ; preds = %17
  %20 = load i32, ptr %7, align 4
  %21 = icmp eq i32 %20, 1
  br i1 %21, label %30, label %22

22:                                               ; preds = %19
  %23 = load i32, ptr %7, align 4
  %24 = icmp eq i32 %23, 0
  br i1 %24, label %25, label %72

25:                                               ; preds = %22
  %26 = load i64, ptr %6, align 8
  %27 = getelementptr inbounds %class.File, ptr %12, i32 0, i32 12
  %28 = load i64, ptr %27, align 8
  %29 = icmp sge i64 %26, %28
  br i1 %29, label %30, label %72

30:                                               ; preds = %25, %19
  %31 = load i32, ptr %7, align 4
  %32 = icmp eq i32 %31, 1
  br i1 %32, label %33, label %35

33:                                               ; preds = %30
  %34 = load i64, ptr %6, align 8
  br label %40

35:                                               ; preds = %30
  %36 = load i64, ptr %6, align 8
  %37 = getelementptr inbounds %class.File, ptr %12, i32 0, i32 12
  %38 = load i64, ptr %37, align 8
  %39 = sub nsw i64 %36, %38
  br label %40

40:                                               ; preds = %35, %33
  %41 = phi i64 [ %34, %33 ], [ %39, %35 ]
  store i64 %41, ptr %9, align 8
  br label %42

42:                                               ; preds = %61, %40
  %43 = load i64, ptr %9, align 8
  %44 = icmp ugt i64 %43, 0
  br i1 %44, label %45, label %71

45:                                               ; preds = %42
  %46 = getelementptr inbounds [4096 x i8], ptr %8, i64 0, i64 0
  %47 = load i64, ptr %9, align 8
  %48 = icmp ult i64 %47, 4096
  br i1 %48, label %49, label %51

49:                                               ; preds = %45
  %50 = load i64, ptr %9, align 8
  br label %52

51:                                               ; preds = %45
  br label %52

52:                                               ; preds = %51, %49
  %53 = phi i64 [ %50, %49 ], [ 4096, %51 ]
  %54 = load ptr, ptr %12, align 8
  %55 = getelementptr inbounds ptr, ptr %54, i64 4
  %56 = load ptr, ptr %55, align 8
  %57 = call noundef i32 %56(ptr noundef nonnull align 8 dereferenceable(8256) %12, ptr noundef %46, i64 noundef %53)
  store i32 %57, ptr %10, align 4
  %58 = load i32, ptr %10, align 4
  %59 = icmp sle i32 %58, 0
  br i1 %59, label %60, label %61

60:                                               ; preds = %52
  store i1 false, ptr %4, align 1
  br label %122

61:                                               ; preds = %52
  %62 = load i32, ptr %10, align 4
  %63 = sext i32 %62 to i64
  %64 = load i64, ptr %9, align 8
  %65 = sub i64 %64, %63
  store i64 %65, ptr %9, align 8
  %66 = load i32, ptr %10, align 4
  %67 = sext i32 %66 to i64
  %68 = getelementptr inbounds %class.File, ptr %12, i32 0, i32 12
  %69 = load i64, ptr %68, align 8
  %70 = add nsw i64 %69, %67
  store i64 %70, ptr %68, align 8
  br label %42, !llvm.loop !8

71:                                               ; preds = %42
  store i1 true, ptr %4, align 1
  br label %122

72:                                               ; preds = %25, %22
  %73 = load i32, ptr %7, align 4
  %74 = icmp eq i32 %73, 2
  br i1 %74, label %75, label %90

75:                                               ; preds = %72
  br label %76

76:                                               ; preds = %83, %75
  %77 = getelementptr inbounds [4096 x i8], ptr %8, i64 0, i64 0
  %78 = load ptr, ptr %12, align 8
  %79 = getelementptr inbounds ptr, ptr %78, i64 4
  %80 = load ptr, ptr %79, align 8
  %81 = call noundef i32 %80(ptr noundef nonnull align 8 dereferenceable(8256) %12, ptr noundef %77, i64 noundef 4096)
  store i32 %81, ptr %11, align 4
  %82 = icmp sgt i32 %81, 0
  br i1 %82, label %83, label %89

83:                                               ; preds = %76
  %84 = load i32, ptr %11, align 4
  %85 = sext i32 %84 to i64
  %86 = getelementptr inbounds %class.File, ptr %12, i32 0, i32 12
  %87 = load i64, ptr %86, align 8
  %88 = add nsw i64 %87, %85
  store i64 %88, ptr %86, align 8
  br label %76, !llvm.loop !9

89:                                               ; preds = %76
  store i1 true, ptr %4, align 1
  br label %122

90:                                               ; preds = %72
  store i1 false, ptr %4, align 1
  br label %122

91:                                               ; preds = %17
  %92 = load i64, ptr %6, align 8
  %93 = icmp slt i64 %92, 0
  br i1 %93, label %94, label %111

94:                                               ; preds = %91
  %95 = load i32, ptr %7, align 4
  %96 = icmp ne i32 %95, 0
  br i1 %96, label %97, label %111

97:                                               ; preds = %94
  %98 = load i32, ptr %7, align 4
  %99 = icmp eq i32 %98, 1
  br i1 %99, label %100, label %105

100:                                              ; preds = %97
  %101 = load ptr, ptr %12, align 8
  %102 = getelementptr inbounds ptr, ptr %101, i64 6
  %103 = load ptr, ptr %102, align 8
  %104 = call noundef i64 %103(ptr noundef nonnull align 8 dereferenceable(8256) %12)
  br label %107

105:                                              ; preds = %97
  %106 = call noundef i64 @_ZN4File10FileLengthEv(ptr noundef nonnull align 8 dereferenceable(8256) %12)
  br label %107

107:                                              ; preds = %105, %100
  %108 = phi i64 [ %104, %100 ], [ %106, %105 ]
  %109 = load i64, ptr %6, align 8
  %110 = add nsw i64 %108, %109
  store i64 %110, ptr %6, align 8
  store i32 0, ptr %7, align 4
  br label %111

111:                                              ; preds = %107, %94, %91
  %112 = getelementptr inbounds %class.File, ptr %12, i32 0, i32 2
  store i8 0, ptr %112, align 8
  %113 = getelementptr inbounds %class.File, ptr %12, i32 0, i32 1
  %114 = load i64, ptr %113, align 8
  %115 = trunc i64 %114 to i32
  %116 = load i64, ptr %6, align 8
  %117 = load i32, ptr %7, align 4
  %118 = call i64 @lseek64(i32 noundef %115, i64 noundef %116, i32 noundef %117) #10
  %119 = icmp eq i64 %118, -1
  br i1 %119, label %120, label %121

120:                                              ; preds = %111
  store i1 false, ptr %4, align 1
  br label %122

121:                                              ; preds = %111
  store i1 true, ptr %4, align 1
  br label %122

122:                                              ; preds = %121, %120, %90, %89, %71, %60, %16
  %123 = load i1, ptr %4, align 1
  ret i1 %123
}