; Function Attrs: mustprogress uwtable
define noundef zeroext i1 @_ZN4File7RawSeekEli(ptr noundef nonnull align 8 dereferenceable(8256) %0, i64 noundef %1, i32 noundef %2) local_unnamed_addr #2 align 2 {
  %4 = alloca [4096 x i8], align 16
  %5 = getelementptr inbounds i8, ptr %0, i64 8
  %6 = load i64, ptr %5, align 8
  %7 = icmp eq i64 %6, -1
  br i1 %7, label %.loopexit, label %8

8:                                                ; preds = %3
  %9 = getelementptr inbounds i8, ptr %0, i64 20
  %10 = load i32, ptr %9, align 4
  %.not33 = icmp eq i32 %10, 1
  br i1 %.not33, label %11, label %49

11:                                               ; preds = %8
  %12 = icmp eq i32 %2, 1
  br i1 %12, label %.critedge, label %13

13:                                               ; preds = %11
  %14 = icmp ne i32 %2, 0
  %15 = getelementptr inbounds i8, ptr %0, i64 40
  %16 = load i64, ptr %15, align 8
  %.not = icmp sgt i64 %16, %1
  %or.cond32 = select i1 %14, i1 true, i1 %.not
  br i1 %or.cond32, label %33, label %17

17:                                               ; preds = %13
  %18 = sub nsw i64 %1, %16
  br label %.critedge

.critedge:                                        ; preds = %11, %17
  %19 = phi i64 [ %18, %17 ], [ %1, %11 ]
  %.not3035 = icmp eq i64 %19, 0
  br i1 %.not3035, label %.loopexit, label %.lr.ph37

.lr.ph37:                                         ; preds = %.critedge
  %20 = getelementptr inbounds i8, ptr %0, i64 40
  br label %21

21:                                               ; preds = %.lr.ph37, %28
  %.02436 = phi i64 [ %19, %.lr.ph37 ], [ %30, %28 ]
  %22 = call i64 @llvm.umin.i64(i64 %.02436, i64 4096)
  %23 = load ptr, ptr %0, align 8
  %24 = getelementptr inbounds i8, ptr %23, i64 32
  %25 = load ptr, ptr %24, align 8
  %26 = call noundef i32 %25(ptr noundef nonnull align 8 dereferenceable(8256) %0, ptr noundef nonnull %4, i64 noundef %22)
  %27 = icmp sgt i32 %26, 0
  br i1 %27, label %28, label %.loopexit

28:                                               ; preds = %21
  %29 = zext nneg i32 %26 to i64
  %30 = sub i64 %.02436, %29
  %31 = load i64, ptr %20, align 8
  %32 = add nsw i64 %31, %29
  store i64 %32, ptr %20, align 8
  %.not30 = icmp eq i64 %30, 0
  br i1 %.not30, label %.loopexit, label %21, !llvm.loop !8

33:                                               ; preds = %13
  %34 = icmp eq i32 %2, 2
  br i1 %34, label %.preheader, label %.loopexit

.preheader:                                       ; preds = %33
  %35 = load ptr, ptr %0, align 8
  %36 = getelementptr inbounds i8, ptr %35, i64 32
  %37 = load ptr, ptr %36, align 8
  %38 = call noundef i32 %37(ptr noundef nonnull align 8 dereferenceable(8256) %0, ptr noundef nonnull %4, i64 noundef 4096)
  %39 = icmp sgt i32 %38, 0
  br i1 %39, label %.lr.ph, label %.loopexit

.lr.ph:                                           ; preds = %.preheader, %.lr.ph
  %40 = phi i32 [ %47, %.lr.ph ], [ %38, %.preheader ]
  %41 = zext nneg i32 %40 to i64
  %42 = load i64, ptr %15, align 8
  %43 = add nsw i64 %42, %41
  store i64 %43, ptr %15, align 8
  %44 = load ptr, ptr %0, align 8
  %45 = getelementptr inbounds i8, ptr %44, i64 32
  %46 = load ptr, ptr %45, align 8
  %47 = call noundef i32 %46(ptr noundef nonnull align 8 dereferenceable(8256) %0, ptr noundef nonnull %4, i64 noundef 4096)
  %48 = icmp sgt i32 %47, 0
  br i1 %48, label %.lr.ph, label %.loopexit, !llvm.loop !9

49:                                               ; preds = %8
  %50 = icmp slt i64 %1, 0
  %51 = icmp ne i32 %2, 0
  %or.cond = and i1 %50, %51
  br i1 %or.cond, label %52, label %72

52:                                               ; preds = %49
  %53 = icmp eq i32 %2, 1
  %54 = load ptr, ptr %0, align 8
  %55 = getelementptr inbounds i8, ptr %54, i64 48
  %56 = load ptr, ptr %55, align 8
  %57 = tail call noundef i64 %56(ptr noundef nonnull align 8 dereferenceable(8256) %0)
  br i1 %53, label %69, label %58

58:                                               ; preds = %52
  %59 = load ptr, ptr %0, align 8
  %60 = getelementptr inbounds i8, ptr %59, i64 40
  %61 = load ptr, ptr %60, align 8
  tail call void %61(ptr noundef nonnull align 8 dereferenceable(8256) %0, i64 noundef 0, i32 noundef 2)
  %62 = load ptr, ptr %0, align 8
  %63 = getelementptr inbounds i8, ptr %62, i64 48
  %64 = load ptr, ptr %63, align 8
  %65 = tail call noundef i64 %64(ptr noundef nonnull align 8 dereferenceable(8256) %0)
  %66 = load ptr, ptr %0, align 8
  %67 = getelementptr inbounds i8, ptr %66, i64 40
  %68 = load ptr, ptr %67, align 8
  tail call void %68(ptr noundef nonnull align 8 dereferenceable(8256) %0, i64 noundef %57, i32 noundef 0)
  br label %69

69:                                               ; preds = %52, %58
  %70 = phi i64 [ %65, %58 ], [ %57, %52 ]
  %71 = add nsw i64 %70, %1
  %.pre = load i64, ptr %5, align 8
  br label %72

72:                                               ; preds = %69, %49
  %73 = phi i64 [ %.pre, %69 ], [ %6, %49 ]
  %.025 = phi i32 [ 0, %69 ], [ %2, %49 ]
  %.023 = phi i64 [ %71, %69 ], [ %1, %49 ]
  %74 = getelementptr inbounds i8, ptr %0, i64 16
  store i8 0, ptr %74, align 8
  %75 = trunc i64 %73 to i32
  %76 = tail call i64 @lseek64(i32 noundef %75, i64 noundef %.023, i32 noundef %.025) #18
  %77 = icmp ne i64 %76, -1
  br label %.loopexit

.loopexit:                                        ; preds = %.lr.ph, %21, %28, %.preheader, %.critedge, %72, %33, %3
  %.0 = phi i1 [ true, %3 ], [ false, %33 ], [ %77, %72 ], [ true, %.critedge ], [ true, %.preheader ], [ %27, %28 ], [ %27, %21 ], [ true, %.lr.ph ]
  ret i1 %.0
}